; Function Attrs: nofree nounwind memory(readwrite, inaccessiblemem: read) uwtable
define internal fastcc noundef ptr @hwloc__memattr_get_initiator_from_location(ptr noundef readonly captures(none) %0, ptr noundef readonly captures(address_is_null) %1) unnamed_addr #15 {
  %.not = icmp eq ptr %1, null
  br i1 %.not, label %3, label %5

3:                                                ; preds = %2
  %4 = tail call ptr @__errno_location() #31
  br label %hwloc__memattr_target_get_initiator.exit.sink.split

5:                                                ; preds = %2
  %6 = load i32, ptr %1, align 8, !tbaa !89
  switch i32 %6, label %15 [
    i32 1, label %7
    i32 0, label %12
  ]

7:                                                ; preds = %5
  %8 = getelementptr inbounds nuw i8, ptr %1, i64 8
  %9 = load ptr, ptr %8, align 8, !tbaa !48
  %.not14.i = icmp eq ptr %9, null
  br i1 %.not14.i, label %15, label %10

10:                                               ; preds = %7
  %11 = tail call i32 @hwloc_bitmap_iszero(ptr noundef nonnull %9) #30
  %.not15.i = icmp eq i32 %11, 0
  br i1 %.not15.i, label %to_internal_location.exit, label %15

12:                                               ; preds = %5
  %13 = getelementptr inbounds nuw i8, ptr %1, i64 8
  %14 = load ptr, ptr %13, align 8, !tbaa !48
  %.not.i = icmp eq ptr %14, null
  br i1 %.not.i, label %15, label %to_internal_location.exit.thread

15:                                               ; preds = %5, %12, %7, %10
  %16 = tail call ptr @__errno_location() #31
  store i32 22, ptr %16, align 4, !tbaa !60
  br label %hwloc__memattr_target_get_initiator.exit.sink.split

to_internal_location.exit:                        ; preds = %10
  %17 = getelementptr inbounds nuw i8, ptr %0, i64 32
  %18 = load i32, ptr %17, align 8, !tbaa !40
  %.not54.i = icmp eq i32 %18, 0
  br i1 %.not54.i, label %.loopexit, label %.lr.ph.i

to_internal_location.exit.thread:                 ; preds = %12
  %19 = getelementptr inbounds nuw i8, ptr %0, i64 32
  %20 = load i32, ptr %19, align 8, !tbaa !40
  %.not54.i21 = icmp eq i32 %20, 0
  br i1 %.not54.i21, label %.loopexit, label %.lr.ph.i.thread

.lr.ph.i.thread:                                  ; preds = %to_internal_location.exit.thread
  %21 = load i32, ptr %14, align 8, !tbaa !85
  %22 = getelementptr inbounds nuw i8, ptr %14, i64 240
  %23 = load i64, ptr %22, align 8, !tbaa !77
  %24 = getelementptr inbounds nuw i8, ptr %0, i64 40
  %25 = load ptr, ptr %24, align 8, !tbaa !44
  br label %.lr.ph.split.us44.preheader.i

.lr.ph.i:                                         ; preds = %to_internal_location.exit
  %26 = getelementptr inbounds nuw i8, ptr %0, i64 40
  %27 = load ptr, ptr %26, align 8, !tbaa !44
  %switch = icmp eq i32 %6, 1
  br i1 %switch, label %.lr.ph.split.us.preheader.i, label %.lr.ph.split.us44.preheader.i

.lr.ph.split.us44.preheader.i:                    ; preds = %.lr.ph.i.thread, %.lr.ph.i
  %28 = phi ptr [ %25, %.lr.ph.i.thread ], [ %27, %.lr.ph.i ]
  %.sroa.6.02330 = phi i64 [ %23, %.lr.ph.i.thread ], [ undef, %.lr.ph.i ]
  %.sroa.8.02429 = phi i32 [ %21, %.lr.ph.i.thread ], [ undef, %.lr.ph.i ]
  %29 = phi i32 [ %20, %.lr.ph.i.thread ], [ %18, %.lr.ph.i ]
  %wide.trip.count.i = zext i32 %29 to i64
  br label %.lr.ph.split.us44.i

.lr.ph.split.us.preheader.i:                      ; preds = %.lr.ph.i
  %wide.trip.count66.i = zext i32 %18 to i64
  br label %.lr.ph.split.us.i

.lr.ph.split.us.i:                                ; preds = %match_internal_location.exit.thread.us.i, %.lr.ph.split.us.preheader.i
  %indvars.iv63.i = phi i64 [ 0, %.lr.ph.split.us.preheader.i ], [ %indvars.iv.next64.i, %match_internal_location.exit.thread.us.i ]
  %30 = getelementptr inbounds nuw %struct.hwloc_internal_memattr_initiator_s, ptr %27, i64 %indvars.iv63.i
  %31 = load i32, ptr %30, align 8, !tbaa !45
  %.not.i.us.i = icmp eq i32 %31, 1
  br i1 %.not.i.us.i, label %match_internal_location.exit.us.i, label %match_internal_location.exit.thread.us.i

match_internal_location.exit.us.i:                ; preds = %.lr.ph.split.us.i
  %32 = getelementptr inbounds nuw i8, ptr %30, i64 8
  %33 = load ptr, ptr %32, align 8, !tbaa !48
  %34 = tail call i32 @hwloc_bitmap_isincluded(ptr noundef nonnull %9, ptr noundef %33) #30
  %35 = icmp eq i32 %34, 0
  br i1 %35, label %match_internal_location.exit.thread.us.i, label %hwloc__memattr_target_get_initiator.exit

match_internal_location.exit.thread.us.i:         ; preds = %match_internal_location.exit.us.i, %.lr.ph.split.us.i
  %indvars.iv.next64.i = add nuw nsw i64 %indvars.iv63.i, 1
  %exitcond67.not.i = icmp eq i64 %indvars.iv.next64.i, %wide.trip.count66.i
  br i1 %exitcond67.not.i, label %.loopexit, label %.lr.ph.split.us.i, !llvm.loop !91

.lr.ph.split.us44.i:                              ; preds = %match_internal_location.exit.thread.us49.i, %.lr.ph.split.us44.preheader.i
  %indvars.iv.i = phi i64 [ 0, %.lr.ph.split.us44.preheader.i ], [ %indvars.iv.next.i, %match_internal_location.exit.thread.us49.i ]
  %36 = getelementptr inbounds nuw %struct.hwloc_internal_memattr_initiator_s, ptr %28, i64 %indvars.iv.i
  %37 = load i32, ptr %36, align 8, !tbaa !45
  %.not.i.us46.i = icmp eq i32 %37, 0
  br i1 %.not.i.us46.i, label %38, label %match_internal_location.exit.thread.us49.i

38:                                               ; preds = %.lr.ph.split.us44.i
  %39 = getelementptr inbounds nuw i8, ptr %36, i64 24
  %40 = load i32, ptr %39, align 8, !tbaa !48
  %41 = icmp eq i32 %.sroa.8.02429, %40
  br i1 %41, label %match_internal_location.exit.us47.i, label %match_internal_location.exit.thread.us49.i

match_internal_location.exit.us47.i:              ; preds = %38
  %42 = getelementptr inbounds nuw i8, ptr %36, i64 16
  %43 = load i64, ptr %42, align 8, !tbaa !48
  %.not55.i = icmp eq i64 %.sroa.6.02330, %43
  br i1 %.not55.i, label %hwloc__memattr_target_get_initiator.exit, label %match_internal_location.exit.thread.us49.i

match_internal_location.exit.thread.us49.i:       ; preds = %match_internal_location.exit.us47.i, %38, %.lr.ph.split.us44.i
  %indvars.iv.next.i = add nuw nsw i64 %indvars.iv.i, 1
  %exitcond.not.i = icmp eq i64 %indvars.iv.next.i, %wide.trip.count.i
  br i1 %exitcond.not.i, label %.loopexit, label %.lr.ph.split.us44.i, !llvm.loop !91

.loopexit:                                        ; preds = %match_internal_location.exit.thread.us49.i, %match_internal_location.exit.thread.us.i, %to_internal_location.exit.thread, %to_internal_location.exit
  %44 = tail call ptr @__errno_location() #31
  br label %hwloc__memattr_target_get_initiator.exit.sink.split

hwloc__memattr_target_get_initiator.exit.sink.split: ; preds = %3, %15, %.loopexit
  %.sink = phi ptr [ %44, %.loopexit ], [ %16, %15 ], [ %4, %3 ]
  store i32 22, ptr %.sink, align 4, !tbaa !60
  br label %hwloc__memattr_target_get_initiator.exit

hwloc__memattr_target_get_initiator.exit:         ; preds = %match_internal_location.exit.us47.i, %match_internal_location.exit.us.i, %hwloc__memattr_target_get_initiator.exit.sink.split
  %.0 = phi ptr [ null, %hwloc__memattr_target_get_initiator.exit.sink.split ], [ %30, %match_internal_location.exit.us.i ], [ %36, %match_internal_location.exit.us47.i ]
  ret ptr %.0
}